Certificate:
    Data:
        Version: 3 (0x2)
        Serial Number:
            d1:56:14:8f:e8:91:34:5a:c1:fa:2e:89:b3:0a:bb:c4
    Signature Algorithm: sha256WithRSAEncryption
        Issuer: CN=Couchbase CA
        Validity
            Not Before: May  6 11:02:00 2020 GMT
            Not After : Aug  9 11:02:00 2022 GMT
        Subject: CN=couchbase-server
        Subject Public Key Info:
            Public Key Algorithm: rsaEncryption
                Public-Key: (2048 bit)
                Modulus:
                    00:e4:1c:9c:90:cd:ac:82:3b:27:a6:b4:a7:3d:a0:
                    fa:b1:a9:6b:72:d3:e6:27:23:31:dd:2d:87:86:f7:
                    0a:12:34:ca:98:77:f8:f0:51:4a:34:6a:4c:53:eb:
                    a9:f7:c6:20:1d:58:b6:4a:54:e8:16:0a:b9:11:e7:
                    73:d2:bc:fc:89:a3:eb:5a:5e:73:4c:1a:e7:4c:42:
                    56:54:a4:0b:9c:84:f1:25:05:3b:cf:22:81:fe:b5:
                    44:06:4d:bd:2a:39:7b:81:21:3c:7a:ad:aa:32:81:
                    3f:93:a7:ea:1c:c8:93:fe:16:71:d1:25:7d:9d:75:
                    12:cd:a7:3d:29:50:c1:2c:14:d0:de:a7:40:89:87:
                    18:78:ee:2b:1e:df:5d:0f:32:21:95:e7:e6:70:c6:
                    75:4c:69:5e:68:43:cf:62:b9:cf:2f:42:88:b8:4c:
                    5b:95:40:3f:c4:29:13:8a:aa:33:fd:73:15:64:d6:
                    57:ac:63:19:6c:b4:30:2d:e9:88:d8:0b:c4:08:b5:
                    1d:bd:1d:45:f7:8f:b1:bb:a3:98:12:c9:3d:90:29:
                    da:d8:f2:80:f6:68:e9:84:43:2f:3e:7d:62:69:3e:
                    a1:a7:e8:98:5b:07:b2:fb:ac:e5:fb:c8:a3:b1:39:
                    89:cb:09:5f:fb:be:a3:d9:28:07:82:7c:5e:74:14:
                    63:7d
                Exponent: 65537 (0x10001)
        X509v3 extensions:
            X509v3 Basic Constraints: 
                CA:FALSE
            X509v3 Subject Key Identifier: 
                B7:0E:2D:77:FD:F6:C4:39:1E:13:FA:AB:6C:03:FC:AB:75:01:46:79
            X509v3 Authority Key Identifier: 
                keyid:99:16:82:E8:FD:43:A4:3A:B6:19:6A:DD:AA:8D:B5:B5:74:44:9E:74
                DirName:/CN=Couchbase CA
                serial:85:9E:67:6D:F9:70:17:0C

            X509v3 Extended Key Usage: 
                TLS Web Server Authentication
            X509v3 Key Usage: 
                Digital Signature, Key Encipherment
            X509v3 Subject Alternative Name: 
                DNS:*.cb-example.skarthik.svc, DNS:*.skarthik.svc
    Signature Algorithm: sha256WithRSAEncryption
         b8:d8:2b:9c:cc:af:d6:5b:a5:84:88:b9:0a:24:18:80:70:1b:
         75:76:c8:58:0e:f9:83:ed:ae:16:3e:65:09:ba:a7:e7:1c:76:
         ea:09:3d:cd:4d:cd:7e:c8:71:fc:24:2d:a9:0c:41:d0:95:4a:
         1f:1d:0b:c9:1c:44:ab:da:4f:7b:2f:0d:8c:e7:62:a7:e9:36:
         ae:8f:c8:15:20:25:a6:ff:f1:49:08:e9:19:dc:2b:38:bc:46:
         44:80:c9:64:2b:a1:be:9f:1a:65:cb:a6:58:2f:11:9c:7e:14:
         a6:3d:0d:91:88:db:d9:da:a8:12:0e:5c:b4:8f:d4:23:50:5f:
         9c:6a:61:53:5b:bc:79:33:36:64:25:8c:18:94:d9:78:db:6b:
         85:68:1f:fe:7c:f6:33:bd:59:4b:a4:9b:54:ff:28:4f:19:3a:
         0a:c4:cc:4f:86:e4:e6:eb:65:82:91:81:5e:d5:57:82:69:65:
         1b:eb:e1:da:a3:21:ed:77:c7:2d:dc:12:23:59:40:00:54:ac:
         20:88:f8:6c:ce:ae:a8:99:41:b9:ac:23:1e:56:92:7a:a5:d5:
         d7:1e:4e:4d:52:85:91:44:16:20:67:e8:7f:51:8f:21:b7:d3:
         58:73:6b:86:2f:6d:ff:06:35:c9:b5:96:b8:ea:07:7e:83:47:
         01:b5:a9:63
-----BEGIN CERTIFICATE-----
MIIDjDCCAnSgAwIBAgIRANFWFI/okTRawfouibMKu8QwDQYJKoZIhvcNAQELBQAw
FzEVMBMGA1UEAwwMQ291Y2hiYXNlIENBMB4XDTIwMDUwNjExMDIwMFoXDTIyMDgw
OTExMDIwMFowGzEZMBcGA1UEAwwQY291Y2hiYXNlLXNlcnZlcjCCASIwDQYJKoZI
hvcNAQEBBQADggEPADCCAQoCggEBAOQcnJDNrII7J6a0pz2g+rGpa3LT5icjMd0t
h4b3ChI0yph3+PBRSjRqTFPrqffGIB1YtkpU6BYKuRHnc9K8/Imj61pec0wa50xC
VlSkC5yE8SUFO88igf61RAZNvSo5e4EhPHqtqjKBP5On6hzIk/4WcdElfZ11Es2n
PSlQwSwU0N6nQImHGHjuKx7fXQ8yIZXn5nDGdUxpXmhDz2K5zy9CiLhMW5VAP8Qp
E4qqM/1zFWTWV6xjGWy0MC3piNgLxAi1Hb0dRfePsbujmBLJPZAp2tjygPZo6YRD
Lz59Ymk+oafomFsHsvus5fvIo7E5icsJX/u+o9koB4J8XnQUY30CAwEAAaOBzjCB
yzAJBgNVHRMEAjAAMB0GA1UdDgQWBBS3Di13/fbEOR4T+qtsA/yrdQFGeTBHBgNV
HSMEQDA+gBSZFoLo/UOkOrYZat2qjbW1dESedKEbpBkwFzEVMBMGA1UEAwwMQ291
Y2hiYXNlIENBggkAhZ5nbflwFwwwEwYDVR0lBAwwCgYIKwYBBQUHAwEwCwYDVR0P
BAQDAgWgMDQGA1UdEQQtMCuCGSouY2ItZXhhbXBsZS5za2FydGhpay5zdmOCDiou
c2thcnRoaWsuc3ZjMA0GCSqGSIb3DQEBCwUAA4IBAQC42CuczK/WW6WEiLkKJBiA
cBt1dshYDvmD7a4WPmUJuqfnHHbqCT3NTc1+yHH8JC2pDEHQlUofHQvJHESr2k97
Lw2M52Kn6Tauj8gVICWm//FJCOkZ3Cs4vEZEgMlkK6G+nxply6ZYLxGcfhSmPQ2R
iNvZ2qgSDly0j9QjUF+camFTW7x5MzZkJYwYlNl422uFaB/+fPYzvVlLpJtU/yhP
GToKxMxPhuTm62WCkYFe1VeCaWUb6+HaoyHtd8ct3BIjWUAAVKwgiPhszq6omUG5
rCMeVpJ6pdXXHk5NUoWRRBYgZ+h/UY8ht9NYc2uGL23/BjXJtZa46gd+g0cBtalj
-----END CERTIFICATE-----
